target datalayout = "e-m:e-p270:32:32-p271:32:32-p272:64:64-i64:64-i128:128-f80:128-n8:16:32:64-S128"
target triple = "x86_64-pc-linux-gnu"

%"class.std::__cxx11::basic_string" = type { %"struct.std::__cxx11::basic_string<char>::_Alloc_hider", i64, %union.anon }
%"struct.std::__cxx11::basic_string<char>::_Alloc_hider" = type { ptr }
%union.anon = type { i64, [8 x i8] }
%"class.std::allocator.5" = type { i8 }
%"struct.faiss::ParameterSpace" = type { ptr, %"class.std::vector.14", i32, i32, i64, i8, double }
%"class.std::vector.14" = type { %"struct.std::_Vector_base.15" }
%"struct.std::_Vector_base.15" = type { %"struct.std::_Vector_base<faiss::ParameterRange, std::allocator<faiss::ParameterRange>>::_Vector_impl" }
%"struct.std::_Vector_base<faiss::ParameterRange, std::allocator<faiss::ParameterRange>>::_Vector_impl" = type { %"struct.std::_Vector_base<faiss::ParameterRange, std::allocator<faiss::ParameterRange>>::_Vector_impl_data" }
%"struct.std::_Vector_base<faiss::ParameterRange, std::allocator<faiss::ParameterRange>>::_Vector_impl_data" = type { ptr, ptr, ptr }
%"struct.faiss::ParameterRange" = type { %"class.std::__cxx11::basic_string", %"class.std::vector.19" }
%"class.std::vector.19" = type { %"struct.std::_Vector_base.20" }
%"struct.std::_Vector_base.20" = type { %"struct.std::_Vector_base<double, std::allocator<double>>::_Vector_impl" }
%"struct.std::_Vector_base<double, std::allocator<double>>::_Vector_impl" = type { %"struct.std::_Vector_base<double, std::allocator<double>>::_Vector_impl_data" }
%"struct.std::_Vector_base<double, std::allocator<double>>::_Vector_impl_data" = type { ptr, ptr, ptr }

@.str.3 = private unnamed_addr constant [108 x i8] c"generated/home/dtcxzyw/WorkSpace/Projects/compilers/llvm-opt-benchmark/bench/faiss/faiss/faiss/AutoTune.cpp\00", align 1
@_ZTIN5faiss14FaissExceptionE = external constant ptr
@.str.5 = private unnamed_addr constant [1 x i8] zeroinitializer, align 1
@.str.6 = private unnamed_addr constant [50 x i8] c"basic_string: construction from null is not valid\00", align 1
@.str.15 = private unnamed_addr constant [50 x i8] c"Error: '%s' failed: Overflow detected in snprintf\00", align 1
@.str.16 = private unnamed_addr constant [21 x i8] c"buf + 1000 - wp >= 0\00", align 1
@__PRETTY_FUNCTION__._ZNK5faiss14ParameterSpace16combination_nameB5cxx11Em = private unnamed_addr constant [66 x i8] c"std::string faiss::ParameterSpace::combination_name(size_t) const\00", align 1
@.str.17 = private unnamed_addr constant [8 x i8] c"%s%s=%g\00", align 1
@.str.18 = private unnamed_addr constant [2 x i8] c",\00", align 1

; Function Attrs: mustprogress nounwind uwtable
define linkonce_odr noundef i64 @_ZNSt11char_traitsIcE6lengthEPKc(ptr noundef %0) #1 comdat align 2 {
  %2 = alloca ptr, align 8
  store ptr %0, ptr %2, align 8
  %3 = load ptr, ptr %2, align 8
  %4 = call i64 @strlen(ptr noundef %3) #5
  ret i64 %4
}

; Function Attrs: mustprogress nounwind uwtable
define linkonce_odr void @_ZNSt7__cxx1112basic_stringIcSt11char_traitsIcESaIcEE12_Alloc_hiderD2Ev(ptr noundef nonnull align 8 dereferenceable(8) %0) unnamed_addr #1 comdat align 2 {
  %2 = alloca ptr, align 8
  store ptr %0, ptr %2, align 8
  %3 = load ptr, ptr %2, align 8
  call void @_ZNSaIcED2Ev(ptr noundef nonnull align 1 dereferenceable(1) %3) #5
  ret void
}

; Function Attrs: mustprogress uwtable
define linkonce_odr void @_ZNSt7__cxx1112basic_stringIcSt11char_traitsIcESaIcEEC2IS3_EEPKcRKS3_(ptr noundef nonnull align 8 dereferenceable(32) %0, ptr noundef %1, ptr noundef nonnull align 1 dereferenceable(1) %2) unnamed_addr #0 comdat align 2 personality ptr @__gxx_personality_v0 {
  %4 = alloca ptr, align 8
  %5 = alloca ptr, align 8
  %6 = alloca ptr, align 8
  %7 = alloca ptr, align 8
  %8 = alloca i32, align 4
  %9 = alloca ptr, align 8
  store ptr %0, ptr %4, align 8
  store ptr %1, ptr %5, align 8
  store ptr %2, ptr %6, align 8
  %10 = load ptr, ptr %4, align 8
  %11 = getelementptr inbounds %"class.std::__cxx11::basic_string", ptr %10, i32 0, i32 0
  %12 = call noundef ptr @_ZNSt7__cxx1112basic_stringIcSt11char_traitsIcESaIcEE13_M_local_dataEv(ptr noundef nonnull align 8 dereferenceable(32) %10)
  %13 = load ptr, ptr %6, align 8
  call void @_ZNSt7__cxx1112basic_stringIcSt11char_traitsIcESaIcEE12_Alloc_hiderC1EPcRKS3_(ptr noundef nonnull align 8 dereferenceable(8) %11, ptr noundef %12, ptr noundef nonnull align 1 dereferenceable(1) %13)
  %14 = load ptr, ptr %5, align 8
  %15 = icmp eq ptr %14, null
  br i1 %15, label %16, label %22

16:                                               ; preds = %3
  invoke void @_ZSt19__throw_logic_errorPKc(ptr noundef @.str.6) #19
          to label %17 unwind label %18

17:                                               ; preds = %16
  unreachable

18:                                               ; preds = %26, %22, %16
  %19 = landingpad { ptr, i32 }
          cleanup
  %20 = extractvalue { ptr, i32 } %19, 0
  store ptr %20, ptr %7, align 8
  %21 = extractvalue { ptr, i32 } %19, 1
  store i32 %21, ptr %8, align 4
  call void @_ZNSt7__cxx1112basic_stringIcSt11char_traitsIcESaIcEE12_Alloc_hiderD2Ev(ptr noundef nonnull align 8 dereferenceable(8) %11) #5
  br label %31

22:                                               ; preds = %3
  %23 = load ptr, ptr %5, align 8
  %24 = load ptr, ptr %5, align 8
  %25 = invoke noundef i64 @_ZNSt11char_traitsIcE6lengthEPKc(ptr noundef %24)
          to label %26 unwind label %18

26:                                               ; preds = %22
  %27 = getelementptr inbounds i8, ptr %23, i64 %25
  store ptr %27, ptr %9, align 8
  %28 = load ptr, ptr %5, align 8
  %29 = load ptr, ptr %9, align 8
  invoke void @_ZNSt7__cxx1112basic_stringIcSt11char_traitsIcESaIcEE12_M_constructIPKcEEvT_S8_St20forward_iterator_tag(ptr noundef nonnull align 8 dereferenceable(32) %10, ptr noundef %28, ptr noundef %29)
          to label %30 unwind label %18

30:                                               ; preds = %26
  ret void

31:                                               ; preds = %18
  %32 = load ptr, ptr %7, align 8
  %33 = load i32, ptr %8, align 4
  %34 = insertvalue { ptr, i32 } poison, ptr %32, 0
  %35 = insertvalue { ptr, i32 } %34, i32 %33, 1
  resume { ptr, i32 } %35
}

; Function Attrs: mustprogress nounwind uwtable
define linkonce_odr noundef nonnull align 8 dereferenceable(8) ptr @_ZNKSt6vectorIdSaIdEEixEm(ptr noundef nonnull align 8 dereferenceable(24) %0, i64 noundef %1) #1 comdat align 2 {
  %3 = alloca ptr, align 8
  %4 = alloca i64, align 8
  store ptr %0, ptr %3, align 8
  store i64 %1, ptr %4, align 8
  %5 = load ptr, ptr %3, align 8
  %6 = getelementptr inbounds %"struct.std::_Vector_base.20", ptr %5, i32 0, i32 0
  %7 = getelementptr inbounds %"struct.std::_Vector_base<double, std::allocator<double>>::_Vector_impl_data", ptr %6, i32 0, i32 0
  %8 = load ptr, ptr %7, align 8
  %9 = load i64, ptr %4, align 8
  %10 = getelementptr inbounds double, ptr %8, i64 %9
  ret ptr %10
}

; Function Attrs: mustprogress nounwind uwtable
define linkonce_odr noundef i64 @_ZNKSt6vectorIdSaIdEE4sizeEv(ptr noundef nonnull align 8 dereferenceable(24) %0) #1 comdat align 2 {
  %2 = alloca ptr, align 8
  store ptr %0, ptr %2, align 8
  %3 = load ptr, ptr %2, align 8
  %4 = getelementptr inbounds %"struct.std::_Vector_base.20", ptr %3, i32 0, i32 0
  %5 = getelementptr inbounds %"struct.std::_Vector_base<double, std::allocator<double>>::_Vector_impl_data", ptr %4, i32 0, i32 1
  %6 = load ptr, ptr %5, align 8
  %7 = getelementptr inbounds %"struct.std::_Vector_base.20", ptr %3, i32 0, i32 0
  %8 = getelementptr inbounds %"struct.std::_Vector_base<double, std::allocator<double>>::_Vector_impl_data", ptr %7, i32 0, i32 0
  %9 = load ptr, ptr %8, align 8
  %10 = ptrtoint ptr %6 to i64
  %11 = ptrtoint ptr %9 to i64
  %12 = sub i64 %10, %11
  %13 = sdiv exact i64 %12, 8
  ret i64 %13
}

; Function Attrs: mustprogress nounwind uwtable
define linkonce_odr noundef nonnull align 8 dereferenceable(56) ptr @_ZNKSt6vectorIN5faiss14ParameterRangeESaIS1_EEixEm(ptr noundef nonnull align 8 dereferenceable(24) %0, i64 noundef %1) #1 comdat align 2 {
  %3 = alloca ptr, align 8
  %4 = alloca i64, align 8
  store ptr %0, ptr %3, align 8
  store i64 %1, ptr %4, align 8
  %5 = load ptr, ptr %3, align 8
  %6 = getelementptr inbounds %"struct.std::_Vector_base.15", ptr %5, i32 0, i32 0
  %7 = getelementptr inbounds %"struct.std::_Vector_base<faiss::ParameterRange, std::allocator<faiss::ParameterRange>>::_Vector_impl_data", ptr %6, i32 0, i32 0
  %8 = load ptr, ptr %7, align 8
  %9 = load i64, ptr %4, align 8
  %10 = getelementptr inbounds %"struct.faiss::ParameterRange", ptr %8, i64 %9
  ret ptr %10
}

; Function Attrs: mustprogress nounwind uwtable
define linkonce_odr noundef i64 @_ZNKSt6vectorIN5faiss14ParameterRangeESaIS1_EE4sizeEv(ptr noundef nonnull align 8 dereferenceable(24) %0) #1 comdat align 2 {
  %2 = alloca ptr, align 8
  store ptr %0, ptr %2, align 8
  %3 = load ptr, ptr %2, align 8
  %4 = getelementptr inbounds %"struct.std::_Vector_base.15", ptr %3, i32 0, i32 0
  %5 = getelementptr inbounds %"struct.std::_Vector_base<faiss::ParameterRange, std::allocator<faiss::ParameterRange>>::_Vector_impl_data", ptr %4, i32 0, i32 1
  %6 = load ptr, ptr %5, align 8
  %7 = getelementptr inbounds %"struct.std::_Vector_base.15", ptr %3, i32 0, i32 0
  %8 = getelementptr inbounds %"struct.std::_Vector_base<faiss::ParameterRange, std::allocator<faiss::ParameterRange>>::_Vector_impl_data", ptr %7, i32 0, i32 0
  %9 = load ptr, ptr %8, align 8
  %10 = ptrtoint ptr %6 to i64
  %11 = ptrtoint ptr %9 to i64
  %12 = sub i64 %10, %11
  %13 = sdiv exact i64 %12, 56
  ret i64 %13
}

; Function Attrs: mustprogress uwtable
define void @_ZNK5faiss14ParameterSpace16combination_nameB5cxx11Em(ptr dead_on_unwind noalias writable sret(%"class.std::__cxx11::basic_string") align 8 %0, ptr noundef nonnull align 8 dereferenceable(64) %1, i64 noundef %2) #0 align 2 personality ptr @__gxx_personality_v0 {
  %4 = alloca ptr, align 8
  %5 = alloca ptr, align 8
  %6 = alloca i64, align 8
  %7 = alloca [1000 x i8], align 16
  %8 = alloca ptr, align 8
  %9 = alloca i32, align 4
  %10 = alloca %"class.std::__cxx11::basic_string", align 8
  %11 = alloca i32, align 4
  %12 = alloca ptr, align 8
  %13 = alloca i32, align 4
  %14 = alloca ptr, align 8
  %15 = alloca i64, align 8
  %16 = alloca %"class.std::allocator.5", align 1
  store ptr %0, ptr %4, align 8
  store ptr %1, ptr %5, align 8
  store i64 %2, ptr %6, align 8
  %17 = load ptr, ptr %5, align 8
  %18 = getelementptr inbounds [1000 x i8], ptr %7, i64 0, i64 0
  store ptr %18, ptr %8, align 8
  %19 = load ptr, ptr %8, align 8
  store i8 0, ptr %19, align 1
  store i32 0, ptr %9, align 4
  br label %20

20:                                               ; preds = %96, %3
  %21 = load i32, ptr %9, align 4
  %22 = sext i32 %21 to i64
  %23 = getelementptr inbounds %"struct.faiss::ParameterSpace", ptr %17, i32 0, i32 1
  %24 = call noundef i64 @_ZNKSt6vectorIN5faiss14ParameterRangeESaIS1_EE4sizeEv(ptr noundef nonnull align 8 dereferenceable(24) %23) #5
  %25 = icmp ult i64 %22, %24
  br i1 %25, label %26, label %99

26:                                               ; preds = %20
  br label %27

27:                                               ; preds = %26
  %28 = getelementptr inbounds [1000 x i8], ptr %7, i64 0, i64 0
  %29 = getelementptr inbounds i8, ptr %28, i64 1000
  %30 = load ptr, ptr %8, align 8
  %31 = ptrtoint ptr %29 to i64
  %32 = ptrtoint ptr %30 to i64
  %33 = sub i64 %31, %32
  %34 = icmp sge i64 %33, 0
  br i1 %34, label %58, label %35

35:                                               ; preds = %27
  br label %36

36:                                               ; preds = %35
  call void @_ZNSt7__cxx1112basic_stringIcSt11char_traitsIcESaIcEEC1Ev(ptr noundef nonnull align 8 dereferenceable(32) %10) #5
  %37 = call i32 (ptr, i64, ptr, ...) @snprintf(ptr noundef null, i64 noundef 0, ptr noundef @.str.15, ptr noundef @.str.16) #5
  store i32 %37, ptr %11, align 4
  %38 = load i32, ptr %11, align 4
  %39 = add nsw i32 %38, 1
  %40 = sext i32 %39 to i64
  invoke void @_ZNSt7__cxx1112basic_stringIcSt11char_traitsIcESaIcEE6resizeEm(ptr noundef nonnull align 8 dereferenceable(32) %10, i64 noundef %40)
          to label %41 unwind label %48

41:                                               ; preds = %36
  %42 = invoke noundef nonnull align 1 dereferenceable(1) ptr @_ZNSt7__cxx1112basic_stringIcSt11char_traitsIcESaIcEEixEm(ptr noundef nonnull align 8 dereferenceable(32) %10, i64 noundef 0)
          to label %43 unwind label %48

43:                                               ; preds = %41
  %44 = call noundef i64 @_ZNKSt7__cxx1112basic_stringIcSt11char_traitsIcESaIcEE4sizeEv(ptr noundef nonnull align 8 dereferenceable(32) %10) #5
  %45 = call i32 (ptr, i64, ptr, ...) @snprintf(ptr noundef %42, i64 noundef %44, ptr noundef @.str.15, ptr noundef @.str.16) #5
  %46 = call ptr @__cxa_allocate_exception(i64 40) #5
  invoke void @_ZN5faiss14FaissExceptionC1ERKNSt7__cxx1112basic_stringIcSt11char_traitsIcESaIcEEEPKcSA_i(ptr noundef nonnull align 8 dereferenceable(40) %46, ptr noundef nonnull align 8 dereferenceable(32) %10, ptr noundef @__PRETTY_FUNCTION__._ZNK5faiss14ParameterSpace16combination_nameB5cxx11Em, ptr noundef @.str.3, i32 noundef 288)
          to label %47 unwind label %52

47:                                               ; preds = %43
  invoke void @__cxa_throw(ptr %46, ptr @_ZTIN5faiss14FaissExceptionE, ptr @_ZN5faiss14FaissExceptionD2Ev) #19
          to label %111 unwind label %48

48:                                               ; preds = %47, %41, %36
  %49 = landingpad { ptr, i32 }
          cleanup
  %50 = extractvalue { ptr, i32 } %49, 0
  store ptr %50, ptr %12, align 8
  %51 = extractvalue { ptr, i32 } %49, 1
  store i32 %51, ptr %13, align 4
  br label %56

52:                                               ; preds = %43
  %53 = landingpad { ptr, i32 }
          cleanup
  %54 = extractvalue { ptr, i32 } %53, 0
  store ptr %54, ptr %12, align 8
  %55 = extractvalue { ptr, i32 } %53, 1
  store i32 %55, ptr %13, align 4
  call void @__cxa_free_exception(ptr %46) #5
  br label %56

56:                                               ; preds = %52, %48
  call void @_ZNSt7__cxx1112basic_stringIcSt11char_traitsIcESaIcEED1Ev(ptr noundef nonnull align 8 dereferenceable(32) %10) #5
  br label %106

57:                                               ; No predecessors!
  br label %58

58:                                               ; preds = %57, %27
  br label %59

59:                                               ; preds = %58
  %60 = getelementptr inbounds %"struct.faiss::ParameterSpace", ptr %17, i32 0, i32 1
  %61 = load i32, ptr %9, align 4
  %62 = sext i32 %61 to i64
  %63 = call noundef nonnull align 8 dereferenceable(56) ptr @_ZNKSt6vectorIN5faiss14ParameterRangeESaIS1_EEixEm(ptr noundef nonnull align 8 dereferenceable(24) %60, i64 noundef %62) #5
  store ptr %63, ptr %14, align 8
  %64 = load i64, ptr %6, align 8
  %65 = load ptr, ptr %14, align 8
  %66 = getelementptr inbounds %"struct.faiss::ParameterRange", ptr %65, i32 0, i32 1
  %67 = call noundef i64 @_ZNKSt6vectorIdSaIdEE4sizeEv(ptr noundef nonnull align 8 dereferenceable(24) %66) #5
  %68 = urem i64 %64, %67
  store i64 %68, ptr %15, align 8
  %69 = load ptr, ptr %14, align 8
  %70 = getelementptr inbounds %"struct.faiss::ParameterRange", ptr %69, i32 0, i32 1
  %71 = call noundef i64 @_ZNKSt6vectorIdSaIdEE4sizeEv(ptr noundef nonnull align 8 dereferenceable(24) %70) #5
  %72 = load i64, ptr %6, align 8
  %73 = udiv i64 %72, %71
  store i64 %73, ptr %6, align 8
  %74 = load ptr, ptr %8, align 8
  %75 = getelementptr inbounds [1000 x i8], ptr %7, i64 0, i64 0
  %76 = getelementptr inbounds i8, ptr %75, i64 1000
  %77 = load ptr, ptr %8, align 8
  %78 = ptrtoint ptr %76 to i64
  %79 = ptrtoint ptr %77 to i64
  %80 = sub i64 %78, %79
  %81 = load i32, ptr %9, align 4
  %82 = icmp eq i32 %81, 0
  %83 = select i1 %82, ptr @.str.5, ptr @.str.18
  %84 = load ptr, ptr %14, align 8
  %85 = getelementptr inbounds %"struct.faiss::ParameterRange", ptr %84, i32 0, i32 0
  %86 = call noundef ptr @_ZNKSt7__cxx1112basic_stringIcSt11char_traitsIcESaIcEE5c_strEv(ptr noundef nonnull align 8 dereferenceable(32) %85) #5
  %87 = load ptr, ptr %14, align 8
  %88 = getelementptr inbounds %"struct.faiss::ParameterRange", ptr %87, i32 0, i32 1
  %89 = load i64, ptr %15, align 8
  %90 = call noundef nonnull align 8 dereferenceable(8) ptr @_ZNKSt6vectorIdSaIdEEixEm(ptr noundef nonnull align 8 dereferenceable(24) %88, i64 noundef %89) #5
  %91 = load double, ptr %90, align 8
  %92 = call i32 (ptr, i64, ptr, ...) @snprintf(ptr noundef %74, i64 noundef %80, ptr noundef @.str.17, ptr noundef %83, ptr noundef %86, double noundef %91) #5
  %93 = load ptr, ptr %8, align 8
  %94 = sext i32 %92 to i64
  %95 = getelementptr inbounds i8, ptr %93, i64 %94
  store ptr %95, ptr %8, align 8
  br label %96

96:                                               ; preds = %59
  %97 = load i32, ptr %9, align 4
  %98 = add nsw i32 %97, 1
  store i32 %98, ptr %9, align 4
  br label %20, !llvm.loop !30

99:                                               ; preds = %20
  %100 = getelementptr inbounds [1000 x i8], ptr %7, i64 0, i64 0
  call void @_ZNSaIcEC1Ev(ptr noundef nonnull align 1 dereferenceable(1) %16) #5
  invoke void @_ZNSt7__cxx1112basic_stringIcSt11char_traitsIcESaIcEEC2IS3_EEPKcRKS3_(ptr noundef nonnull align 8 dereferenceable(32) %0, ptr noundef %100, ptr noundef nonnull align 1 dereferenceable(1) %16)
          to label %101 unwind label %102

101:                                              ; preds = %99
  call void @_ZNSaIcED1Ev(ptr noundef nonnull align 1 dereferenceable(1) %16) #5
  ret void

102:                                              ; preds = %99
  %103 = landingpad { ptr, i32 }
          cleanup
  %104 = extractvalue { ptr, i32 } %103, 0
  store ptr %104, ptr %12, align 8
  %105 = extractvalue { ptr, i32 } %103, 1
  store i32 %105, ptr %13, align 4
  call void @_ZNSaIcED1Ev(ptr noundef nonnull align 1 dereferenceable(1) %16) #5
  br label %106

106:                                              ; preds = %102, %56
  %107 = load ptr, ptr %12, align 8
  %108 = load i32, ptr %13, align 4
  %109 = insertvalue { ptr, i32 } poison, ptr %107, 0
  %110 = insertvalue { ptr, i32 } %109, i32 %108, 1
  resume { ptr, i32 } %110

111:                                              ; preds = %47
  unreachable
}