; Function Attrs: mustprogress uwtable
define void @_ZNK5faiss14ParameterSpace16combination_nameB5cxx11Em(ptr dead_on_unwind noalias writable sret(%"class.std::__cxx11::basic_string") align 8 %0, ptr nocapture noundef nonnull readonly align 8 dereferenceable(64) %1, i64 noundef %2) local_unnamed_addr #0 align 2 personality ptr @__gxx_personality_v0 {
  %4 = alloca [1000 x i8], align 16
  %5 = alloca %"class.std::__cxx11::basic_string", align 8
  %6 = alloca %"class.std::allocator.5", align 1
  store i8 0, ptr %4, align 16
  %7 = getelementptr inbounds i8, ptr %1, i64 8
  %8 = getelementptr inbounds i8, ptr %1, i64 16
  %9 = load ptr, ptr %8, align 8
  %10 = load ptr, ptr %7, align 8
  %.not = icmp eq ptr %9, %10
  br i1 %.not, label %._crit_edge, label %.lr.ph

.lr.ph:                                           ; preds = %3
  %11 = getelementptr inbounds i8, ptr %4, i64 1000
  %12 = ptrtoint ptr %11 to i64
  br label %13

13:                                               ; preds = %.lr.ph, %34
  %indvars.iv = phi i64 [ 0, %.lr.ph ], [ %indvars.iv.next, %34 ]
  %14 = phi ptr [ %10, %.lr.ph ], [ %56, %34 ]
  %.031 = phi i64 [ %2, %.lr.ph ], [ %45, %34 ]
  %.01930 = phi ptr [ %4, %.lr.ph ], [ %54, %34 ]
  %15 = ptrtoint ptr %.01930 to i64
  %16 = sub i64 %12, %15
  %17 = icmp sgt i64 %16, -1
  br i1 %17, label %34, label %18

18:                                               ; preds = %13
  call void @_ZNSt7__cxx1112basic_stringIcSt11char_traitsIcESaIcEEC1Ev(ptr noundef nonnull align 8 dereferenceable(32) %5) #14
  %19 = call i32 (ptr, i64, ptr, ...) @snprintf(ptr noundef null, i64 noundef 0, ptr noundef nonnull @.str.15, ptr noundef nonnull @.str.16) #14
  %20 = add nsw i32 %19, 1
  %21 = sext i32 %20 to i64
  invoke void @_ZNSt7__cxx1112basic_stringIcSt11char_traitsIcESaIcEE6resizeEm(ptr noundef nonnull align 8 dereferenceable(32) %5, i64 noundef %21)
          to label %22 unwind label %29

22:                                               ; preds = %18
  %23 = invoke noundef nonnull align 1 dereferenceable(1) ptr @_ZNSt7__cxx1112basic_stringIcSt11char_traitsIcESaIcEEixEm(ptr noundef nonnull align 8 dereferenceable(32) %5, i64 noundef 0)
          to label %24 unwind label %29

24:                                               ; preds = %22
  %25 = call noundef i64 @_ZNKSt7__cxx1112basic_stringIcSt11char_traitsIcESaIcEE4sizeEv(ptr noundef nonnull align 8 dereferenceable(32) %5) #14
  %26 = call i32 (ptr, i64, ptr, ...) @snprintf(ptr noundef nonnull %23, i64 noundef %25, ptr noundef nonnull @.str.15, ptr noundef nonnull @.str.16) #14
  %27 = call ptr @__cxa_allocate_exception(i64 40) #14
  invoke void @_ZN5faiss14FaissExceptionC1ERKNSt7__cxx1112basic_stringIcSt11char_traitsIcESaIcEEEPKcSA_i(ptr noundef nonnull align 8 dereferenceable(40) %27, ptr noundef nonnull align 8 dereferenceable(32) %5, ptr noundef nonnull @__PRETTY_FUNCTION__._ZNK5faiss14ParameterSpace16combination_nameB5cxx11Em, ptr noundef nonnull @.str.3, i32 noundef 288)
          to label %28 unwind label %31

28:                                               ; preds = %24
  invoke void @__cxa_throw(ptr nonnull %27, ptr nonnull @_ZTIN5faiss14FaissExceptionE, ptr nonnull @_ZN5faiss14FaissExceptionD2Ev) #30
          to label %70 unwind label %29

29:                                               ; preds = %28, %22, %18
  %30 = landingpad { ptr, i32 }
          cleanup
  br label %33

31:                                               ; preds = %24
  %32 = landingpad { ptr, i32 }
          cleanup
  call void @__cxa_free_exception(ptr %27) #14
  br label %33

33:                                               ; preds = %31, %29
  %.pn = phi { ptr, i32 } [ %30, %29 ], [ %32, %31 ]
  call void @_ZNSt7__cxx1112basic_stringIcSt11char_traitsIcESaIcEED1Ev(ptr noundef nonnull align 8 dereferenceable(32) %5) #14
  br label %69

34:                                               ; preds = %13
  %35 = getelementptr inbounds %"struct.faiss::ParameterRange", ptr %14, i64 %indvars.iv
  %36 = getelementptr inbounds i8, ptr %35, i64 32
  %37 = getelementptr inbounds i8, ptr %35, i64 40
  %38 = load ptr, ptr %37, align 8
  %39 = load ptr, ptr %36, align 8
  %40 = ptrtoint ptr %38 to i64
  %41 = ptrtoint ptr %39 to i64
  %42 = sub i64 %40, %41
  %43 = ashr exact i64 %42, 3
  %44 = urem i64 %.031, %43
  %45 = udiv i64 %.031, %43
  %46 = icmp eq i64 %indvars.iv, 0
  %47 = select i1 %46, ptr @.str.5, ptr @.str.18
  %48 = call noundef ptr @_ZNKSt7__cxx1112basic_stringIcSt11char_traitsIcESaIcEE5c_strEv(ptr noundef nonnull align 8 dereferenceable(32) %35) #14
  %49 = load ptr, ptr %36, align 8
  %50 = getelementptr inbounds double, ptr %49, i64 %44
  %51 = load double, ptr %50, align 8
  %52 = call i32 (ptr, i64, ptr, ...) @snprintf(ptr noundef %.01930, i64 noundef %16, ptr noundef nonnull @.str.17, ptr noundef nonnull %47, ptr noundef %48, double noundef %51) #14
  %53 = sext i32 %52 to i64
  %54 = getelementptr inbounds i8, ptr %.01930, i64 %53
  %indvars.iv.next = add nuw nsw i64 %indvars.iv, 1
  %55 = load ptr, ptr %8, align 8
  %56 = load ptr, ptr %7, align 8
  %57 = ptrtoint ptr %55 to i64
  %58 = ptrtoint ptr %56 to i64
  %59 = sub i64 %57, %58
  %60 = sdiv exact i64 %59, 56
  %61 = icmp ugt i64 %60, %indvars.iv.next
  br i1 %61, label %13, label %._crit_edge, !llvm.loop !41

._crit_edge:                                      ; preds = %34, %3
  call void @_ZNSaIcEC1Ev(ptr noundef nonnull align 1 dereferenceable(1) %6) #14
  %62 = invoke noundef ptr @_ZNSt7__cxx1112basic_stringIcSt11char_traitsIcESaIcEE13_M_local_dataEv(ptr noundef nonnull align 8 dereferenceable(32) %0)
          to label %.noexc unwind label %67

.noexc:                                           ; preds = %._crit_edge
  invoke void @_ZNSt7__cxx1112basic_stringIcSt11char_traitsIcESaIcEE12_Alloc_hiderC1EPcRKS3_(ptr noundef nonnull align 8 dereferenceable(8) %0, ptr noundef %62, ptr noundef nonnull align 1 dereferenceable(1) %6)
          to label %.noexc28 unwind label %67

.noexc28:                                         ; preds = %.noexc
  %63 = call noundef i64 @strlen(ptr noundef nonnull dereferenceable(1) %4) #14
  %64 = getelementptr inbounds i8, ptr %4, i64 %63
  invoke void @_ZNSt7__cxx1112basic_stringIcSt11char_traitsIcESaIcEE12_M_constructIPKcEEvT_S8_St20forward_iterator_tag(ptr noundef nonnull align 8 dereferenceable(32) %0, ptr noundef nonnull %4, ptr noundef nonnull %64)
          to label %_ZNSt7__cxx1112basic_stringIcSt11char_traitsIcESaIcEEC2IS3_EEPKcRKS3_.exit unwind label %65

65:                                               ; preds = %.noexc28
  %66 = landingpad { ptr, i32 }
          cleanup
  call void @_ZNSaIcED2Ev(ptr noundef nonnull align 1 dereferenceable(1) %0) #14
  br label %.body

_ZNSt7__cxx1112basic_stringIcSt11char_traitsIcESaIcEEC2IS3_EEPKcRKS3_.exit: ; preds = %.noexc28
  call void @_ZNSaIcED1Ev(ptr noundef nonnull align 1 dereferenceable(1) %6) #14
  ret void

67:                                               ; preds = %.noexc, %._crit_edge
  %68 = landingpad { ptr, i32 }
          cleanup
  br label %.body

.body:                                            ; preds = %65, %67
  %eh.lpad-body = phi { ptr, i32 } [ %68, %67 ], [ %66, %65 ]
  call void @_ZNSaIcED1Ev(ptr noundef nonnull align 1 dereferenceable(1) %6) #14
  br label %69

69:                                               ; preds = %.body, %33
  %.pn.pn = phi { ptr, i32 } [ %.pn, %33 ], [ %eh.lpad-body, %.body ]
  resume { ptr, i32 } %.pn.pn

70:                                               ; preds = %28
  unreachable
}